target datalayout = "e-m:e-p270:32:32-p271:32:32-p272:64:64-i64:64-i128:128-f80:128-n8:16:32:64-S128"
target triple = "x86_64-pc-linux-gnu"

@SDL_GetDaysInMonth_REAL.DAYS_IN_MONTH = internal constant [12 x i32] [i32 31, i32 28, i32 31, i32 30, i32 31, i32 30, i32 31, i32 31, i32 30, i32 31, i32 30, i32 31], align 16
@.str = private unnamed_addr constant [41 x i8] c"Month out of range [1-12], requested: %i\00", align 1
@.str.1 = private unnamed_addr constant [39 x i8] c"Day out of range [1-%i], requested: %i\00", align 1

; Function Attrs: nounwind uwtable
define hidden i64 @SDL_CivilToDays(i32 noundef %0, i32 noundef %1, i32 noundef %2, ptr noundef %3, ptr noundef %4) #0 {
  %6 = alloca i32, align 4
  %7 = alloca i32, align 4
  %8 = alloca i32, align 4
  %9 = alloca ptr, align 8
  %10 = alloca ptr, align 8
  %11 = alloca i32, align 4
  %12 = alloca i32, align 4
  %13 = alloca i32, align 4
  %14 = alloca i32, align 4
  %15 = alloca i64, align 8
  %16 = alloca i32, align 4
  store i32 %0, ptr %6, align 4
  store i32 %1, ptr %7, align 4
  store i32 %2, ptr %8, align 4
  store ptr %3, ptr %9, align 8
  store ptr %4, ptr %10, align 8
  %17 = load i32, ptr %7, align 4
  %18 = icmp sle i32 %17, 2
  %19 = zext i1 %18 to i32
  %20 = load i32, ptr %6, align 4
  %21 = sub nsw i32 %20, %19
  store i32 %21, ptr %6, align 4
  call void @llvm.lifetime.start.p0(i64 4, ptr %11) #3
  %22 = load i32, ptr %6, align 4
  %23 = icmp sge i32 %22, 0
  br i1 %23, label %24, label %26

24:                                               ; preds = %5
  %25 = load i32, ptr %6, align 4
  br label %29

26:                                               ; preds = %5
  %27 = load i32, ptr %6, align 4
  %28 = sub nsw i32 %27, 399
  br label %29

29:                                               ; preds = %26, %24
  %30 = phi i32 [ %25, %24 ], [ %28, %26 ]
  %31 = sdiv i32 %30, 400
  store i32 %31, ptr %11, align 4
  call void @llvm.lifetime.start.p0(i64 4, ptr %12) #3
  %32 = load i32, ptr %6, align 4
  %33 = load i32, ptr %11, align 4
  %34 = mul nsw i32 %33, 400
  %35 = sub nsw i32 %32, %34
  store i32 %35, ptr %12, align 4
  call void @llvm.lifetime.start.p0(i64 4, ptr %13) #3
  %36 = load i32, ptr %7, align 4
  %37 = icmp sgt i32 %36, 2
  br i1 %37, label %38, label %41

38:                                               ; preds = %29
  %39 = load i32, ptr %7, align 4
  %40 = sub nsw i32 %39, 3
  br label %44

41:                                               ; preds = %29
  %42 = load i32, ptr %7, align 4
  %43 = add nsw i32 %42, 9
  br label %44

44:                                               ; preds = %41, %38
  %45 = phi i32 [ %40, %38 ], [ %43, %41 ]
  %46 = mul nsw i32 153, %45
  %47 = add nsw i32 %46, 2
  %48 = sdiv i32 %47, 5
  %49 = load i32, ptr %8, align 4
  %50 = add nsw i32 %48, %49
  %51 = sub nsw i32 %50, 1
  store i32 %51, ptr %13, align 4
  call void @llvm.lifetime.start.p0(i64 4, ptr %14) #3
  %52 = load i32, ptr %12, align 4
  %53 = mul i32 %52, 365
  %54 = load i32, ptr %12, align 4
  %55 = udiv i32 %54, 4
  %56 = add i32 %53, %55
  %57 = load i32, ptr %12, align 4
  %58 = udiv i32 %57, 100
  %59 = sub i32 %56, %58
  %60 = load i32, ptr %13, align 4
  %61 = add i32 %59, %60
  store i32 %61, ptr %14, align 4
  call void @llvm.lifetime.start.p0(i64 8, ptr %15) #3
  %62 = load i32, ptr %11, align 4
  %63 = sext i32 %62 to i64
  %64 = mul nsw i64 %63, 146097
  %65 = load i32, ptr %14, align 4
  %66 = zext i32 %65 to i64
  %67 = add nsw i64 %64, %66
  %68 = sub nsw i64 %67, 719468
  store i64 %68, ptr %15, align 8
  %69 = load ptr, ptr %9, align 8
  %70 = icmp ne ptr %69, null
  br i1 %70, label %71, label %87

71:                                               ; preds = %44
  %72 = load i64, ptr %15, align 8
  %73 = icmp sge i64 %72, -4
  br i1 %73, label %74, label %78

74:                                               ; preds = %71
  %75 = load i64, ptr %15, align 8
  %76 = add nsw i64 %75, 4
  %77 = srem i64 %76, 7
  br label %83

78:                                               ; preds = %71
  %79 = load i64, ptr %15, align 8
  %80 = add nsw i64 %79, 5
  %81 = srem i64 %80, 7
  %82 = add nsw i64 %81, 6
  br label %83

83:                                               ; preds = %78, %74
  %84 = phi i64 [ %77, %74 ], [ %82, %78 ]
  %85 = trunc i64 %84 to i32
  %86 = load ptr, ptr %9, align 8
  store i32 %85, ptr %86, align 4
  br label %87

87:                                               ; preds = %83, %44
  %88 = load ptr, ptr %10, align 8
  %89 = icmp ne ptr %88, null
  br i1 %89, label %90, label %121

90:                                               ; preds = %87
  %91 = load i32, ptr %13, align 4
  %92 = icmp ugt i32 %91, 305
  br i1 %92, label %93, label %97

93:                                               ; preds = %90
  %94 = load i32, ptr %13, align 4
  %95 = sub i32 %94, 306
  %96 = load ptr, ptr %10, align 8
  store i32 %95, ptr %96, align 4
  br label %120

97:                                               ; preds = %90
  call void @llvm.lifetime.start.p0(i64 4, ptr %16) #3
  %98 = load i32, ptr %6, align 4
  %99 = srem i32 %98, 4
  %100 = icmp ne i32 %99, 0
  br i1 %100, label %112, label %101

101:                                              ; preds = %97
  %102 = load i32, ptr %6, align 4
  %103 = srem i32 %102, 100
  %104 = icmp ne i32 %103, 0
  br i1 %104, label %110, label %105

105:                                              ; preds = %101
  %106 = load i32, ptr %6, align 4
  %107 = srem i32 %106, 400
  %108 = icmp ne i32 %107, 0
  %109 = xor i1 %108, true
  br label %110

110:                                              ; preds = %105, %101
  %111 = phi i1 [ true, %101 ], [ %109, %105 ]
  br label %112

112:                                              ; preds = %110, %97
  %113 = phi i1 [ false, %97 ], [ %111, %110 ]
  %114 = zext i1 %113 to i32
  %115 = add nsw i32 59, %114
  store i32 %115, ptr %16, align 4
  %116 = load i32, ptr %13, align 4
  %117 = load i32, ptr %16, align 4
  %118 = add i32 %116, %117
  %119 = load ptr, ptr %10, align 8
  store i32 %118, ptr %119, align 4
  call void @llvm.lifetime.end.p0(i64 4, ptr %16) #3
  br label %120

120:                                              ; preds = %112, %93
  br label %121

121:                                              ; preds = %120, %87
  %122 = load i64, ptr %15, align 8
  call void @llvm.lifetime.end.p0(i64 8, ptr %15) #3
  call void @llvm.lifetime.end.p0(i64 4, ptr %14) #3
  call void @llvm.lifetime.end.p0(i64 4, ptr %13) #3
  call void @llvm.lifetime.end.p0(i64 4, ptr %12) #3
  call void @llvm.lifetime.end.p0(i64 4, ptr %11) #3
  ret i64 %122
}

; Function Attrs: nounwind uwtable
define hidden i32 @SDL_GetDaysInMonth_REAL(i32 noundef %0, i32 noundef %1) #0 {
  %3 = alloca i32, align 4
  %4 = alloca i32, align 4
  %5 = alloca i32, align 4
  %6 = alloca i32, align 4
  store i32 %0, ptr %4, align 4
  store i32 %1, ptr %5, align 4
  %7 = load i32, ptr %5, align 4
  %8 = icmp slt i32 %7, 1
  br i1 %8, label %12, label %9

9:                                                ; preds = %2
  %10 = load i32, ptr %5, align 4
  %11 = icmp sgt i32 %10, 12
  br i1 %11, label %12, label %15

12:                                               ; preds = %9, %2
  %13 = load i32, ptr %5, align 4
  %14 = call zeroext i1 (ptr, ...) @SDL_SetError_REAL(ptr noundef @.str, i32 noundef %13)
  store i32 -1, ptr %3, align 4
  br label %40

15:                                               ; preds = %9
  call void @llvm.lifetime.start.p0(i64 4, ptr %6) #3
  %16 = load i32, ptr %5, align 4
  %17 = sub nsw i32 %16, 1
  %18 = sext i32 %17 to i64
  %19 = getelementptr inbounds [12 x i32], ptr @SDL_GetDaysInMonth_REAL.DAYS_IN_MONTH, i64 0, i64 %18
  %20 = load i32, ptr %19, align 4
  store i32 %20, ptr %6, align 4
  %21 = load i32, ptr %5, align 4
  %22 = icmp eq i32 %21, 2
  br i1 %22, label %23, label %38

23:                                               ; preds = %15
  %24 = load i32, ptr %4, align 4
  %25 = srem i32 %24, 4
  %26 = icmp ne i32 %25, 0
  br i1 %26, label %38, label %27

27:                                               ; preds = %23
  %28 = load i32, ptr %4, align 4
  %29 = srem i32 %28, 100
  %30 = icmp ne i32 %29, 0
  br i1 %30, label %35, label %31

31:                                               ; preds = %27
  %32 = load i32, ptr %4, align 4
  %33 = srem i32 %32, 400
  %34 = icmp ne i32 %33, 0
  br i1 %34, label %38, label %35

35:                                               ; preds = %31, %27
  %36 = load i32, ptr %6, align 4
  %37 = add nsw i32 %36, 1
  store i32 %37, ptr %6, align 4
  br label %38

38:                                               ; preds = %35, %31, %23, %15
  %39 = load i32, ptr %6, align 4
  store i32 %39, ptr %3, align 4
  call void @llvm.lifetime.end.p0(i64 4, ptr %6) #3
  br label %40

40:                                               ; preds = %38, %12
  %41 = load i32, ptr %3, align 4
  ret i32 %41
}

; Function Attrs: nounwind uwtable
define hidden i32 @SDL_GetDayOfYear_REAL(i32 noundef %0, i32 noundef %1, i32 noundef %2) #0 {
  %4 = alloca i32, align 4
  %5 = alloca i32, align 4
  %6 = alloca i32, align 4
  %7 = alloca i32, align 4
  %8 = alloca i32, align 4
  %9 = alloca i32, align 4
  store i32 %0, ptr %5, align 4
  store i32 %1, ptr %6, align 4
  store i32 %2, ptr %7, align 4
  call void @llvm.lifetime.start.p0(i64 4, ptr %8) #3
  %10 = load i32, ptr %6, align 4
  %11 = icmp slt i32 %10, 1
  br i1 %11, label %15, label %12

12:                                               ; preds = %3
  %13 = load i32, ptr %6, align 4
  %14 = icmp sgt i32 %13, 12
  br i1 %14, label %15, label %18

15:                                               ; preds = %12, %3
  %16 = load i32, ptr %6, align 4
  %17 = call zeroext i1 (ptr, ...) @SDL_SetError_REAL(ptr noundef @.str, i32 noundef %16)
  store i32 -1, ptr %4, align 4
  store i32 1, ptr %9, align 4
  br label %39

18:                                               ; preds = %12
  %19 = load i32, ptr %7, align 4
  %20 = icmp slt i32 %19, 1
  br i1 %20, label %27, label %21

21:                                               ; preds = %18
  %22 = load i32, ptr %7, align 4
  %23 = load i32, ptr %5, align 4
  %24 = load i32, ptr %6, align 4
  %25 = call i32 @SDL_GetDaysInMonth_REAL(i32 noundef %23, i32 noundef %24)
  %26 = icmp sgt i32 %22, %25
  br i1 %26, label %27, label %33

27:                                               ; preds = %21, %18
  %28 = load i32, ptr %5, align 4
  %29 = load i32, ptr %6, align 4
  %30 = call i32 @SDL_GetDaysInMonth_REAL(i32 noundef %28, i32 noundef %29)
  %31 = load i32, ptr %6, align 4
  %32 = call zeroext i1 (ptr, ...) @SDL_SetError_REAL(ptr noundef @.str.1, i32 noundef %30, i32 noundef %31)
  store i32 -1, ptr %4, align 4
  store i32 1, ptr %9, align 4
  br label %39

33:                                               ; preds = %21
  %34 = load i32, ptr %5, align 4
  %35 = load i32, ptr %6, align 4
  %36 = load i32, ptr %7, align 4
  %37 = call i64 @SDL_CivilToDays(i32 noundef %34, i32 noundef %35, i32 noundef %36, ptr noundef null, ptr noundef %8)
  %38 = load i32, ptr %8, align 4
  store i32 %38, ptr %4, align 4
  store i32 1, ptr %9, align 4
  br label %39

39:                                               ; preds = %33, %27, %15
  call void @llvm.lifetime.end.p0(i64 4, ptr %8) #3
  %40 = load i32, ptr %4, align 4
  ret i32 %40
}