; Function Attrs: nounwind uwtable
define hidden range(i32 -1, 2147483341) i32 @SDL_GetDayOfYear_REAL(i32 noundef %0, i32 noundef %1, i32 noundef %2) local_unnamed_addr #1 {
  %4 = add i32 %1, -13
  %or.cond = icmp ult i32 %4, -12
  br i1 %or.cond, label %5, label %7

5:                                                ; preds = %3
  %6 = tail call zeroext i1 (ptr, ...) @SDL_SetError_REAL(ptr noundef nonnull @.str, i32 noundef %1) #5
  br label %SDL_CivilToDays.exit

7:                                                ; preds = %3
  %8 = icmp slt i32 %2, 1
  %.pre = add nsw i32 %1, -1
  %.pre26 = zext nneg i32 %.pre to i64
  br i1 %8, label %._crit_edge, label %9

._crit_edge:                                      ; preds = %7
  %.pre28 = and i32 %0, 3
  br label %19

9:                                                ; preds = %7
  %10 = getelementptr inbounds nuw [12 x i32], ptr @SDL_GetDaysInMonth_REAL.DAYS_IN_MONTH, i64 0, i64 %.pre26
  %11 = load i32, ptr %10, align 4
  %12 = icmp eq i32 %1, 2
  %13 = and i32 %0, 3
  %.not.i = icmp eq i32 %13, 0
  %or.cond16.i = and i1 %12, %.not.i
  br i1 %or.cond16.i, label %14, label %SDL_GetDaysInMonth_REAL.exit

14:                                               ; preds = %9
  %15 = srem i32 %0, 100
  %.not14.i = icmp ne i32 %15, 0
  %16 = srem i32 %0, 400
  %.not15.i = icmp eq i32 %16, 0
  %or.cond17.i = or i1 %.not14.i, %.not15.i
  %17 = zext i1 %or.cond17.i to i32
  %spec.select.i = add nsw i32 %11, %17
  br label %SDL_GetDaysInMonth_REAL.exit

SDL_GetDaysInMonth_REAL.exit:                     ; preds = %9, %14
  %.012.i = phi i32 [ %11, %9 ], [ %spec.select.i, %14 ]
  %18 = icmp sgt i32 %2, %.012.i
  br i1 %18, label %19, label %28

19:                                               ; preds = %._crit_edge, %SDL_GetDaysInMonth_REAL.exit
  %.pre-phi29 = phi i32 [ %.pre28, %._crit_edge ], [ %13, %SDL_GetDaysInMonth_REAL.exit ]
  %20 = getelementptr inbounds nuw [12 x i32], ptr @SDL_GetDaysInMonth_REAL.DAYS_IN_MONTH, i64 0, i64 %.pre26
  %21 = load i32, ptr %20, align 4
  %22 = icmp eq i32 %1, 2
  %.not.i18 = icmp eq i32 %.pre-phi29, 0
  %or.cond16.i19 = and i1 %22, %.not.i18
  br i1 %or.cond16.i19, label %23, label %SDL_GetDaysInMonth_REAL.exit25

23:                                               ; preds = %19
  %24 = srem i32 %0, 100
  %.not14.i21 = icmp ne i32 %24, 0
  %25 = srem i32 %0, 400
  %.not15.i22 = icmp eq i32 %25, 0
  %or.cond17.i23 = or i1 %.not14.i21, %.not15.i22
  %26 = zext i1 %or.cond17.i23 to i32
  %spec.select.i24 = add nsw i32 %21, %26
  br label %SDL_GetDaysInMonth_REAL.exit25

SDL_GetDaysInMonth_REAL.exit25:                   ; preds = %19, %23
  %.012.i20 = phi i32 [ %21, %19 ], [ %spec.select.i24, %23 ]
  %27 = tail call zeroext i1 (ptr, ...) @SDL_SetError_REAL(ptr noundef nonnull @.str.1, i32 noundef %.012.i20, i32 noundef %1) #5
  br label %SDL_CivilToDays.exit

28:                                               ; preds = %SDL_GetDaysInMonth_REAL.exit
  %29 = icmp samesign ult i32 %1, 3
  %.neg.i = sext i1 %29 to i32
  %30 = add i32 %0, %.neg.i
  %31 = icmp samesign ugt i32 %1, 2
  %.v.i = select i1 %31, i32 65533, i32 9
  %32 = add nuw nsw i32 %.v.i, %1
  %33 = trunc i32 %32 to i16
  %34 = mul i16 %33, 153
  %.lhs.trunc = add i16 %34, 2
  %35 = udiv i16 %.lhs.trunc, 5
  %.zext = zext nneg i16 %35 to i32
  %36 = add nuw nsw i32 %2, %.zext
  %37 = add nsw i32 %36, -1
  %38 = icmp samesign ugt i32 %37, 305
  br i1 %38, label %39, label %41

39:                                               ; preds = %28
  %40 = add nsw i32 %36, -307
  br label %SDL_CivilToDays.exit

41:                                               ; preds = %28
  %42 = and i32 %30, 3
  %.not38.i = icmp eq i32 %42, 0
  br i1 %.not38.i, label %43, label %48

43:                                               ; preds = %41
  %44 = srem i32 %30, 100
  %.not39.i = icmp eq i32 %44, 0
  br i1 %.not39.i, label %45, label %48

45:                                               ; preds = %43
  %46 = srem i32 %30, 400
  %.not40.i = icmp eq i32 %46, 0
  %47 = select i1 %.not40.i, i32 60, i32 59
  br label %48

48:                                               ; preds = %45, %43, %41
  %49 = phi i32 [ 59, %41 ], [ 60, %43 ], [ %47, %45 ]
  %50 = add nuw nsw i32 %49, %37
  br label %SDL_CivilToDays.exit

SDL_CivilToDays.exit:                             ; preds = %48, %39, %SDL_GetDaysInMonth_REAL.exit25, %5
  %.0 = phi i32 [ -1, %5 ], [ -1, %SDL_GetDaysInMonth_REAL.exit25 ], [ %40, %39 ], [ %50, %48 ]
  ret i32 %.0
}